; Function Attrs: mustprogress nounwind willreturn uwtable
define internal noundef i32 @post(i32 %0, i32 %1, ptr noundef readnone %2, ptr noundef readonly %3) #10 {
  %.not = icmp eq ptr %3, null
  br i1 %.not, label %.critedge, label %5

5:                                                ; preds = %4
  %6 = load ptr, ptr %3, align 8
  %.not19 = icmp eq ptr %6, null
  br i1 %.not19, label %.critedge, label %7

7:                                                ; preds = %5
  %8 = getelementptr inbounds i8, ptr %6, i64 32
  %9 = load i64, ptr %8, align 8
  %cond = icmp eq i64 %9, 0
  br i1 %cond, label %25, label %print_chain.exit

print_chain.exit:                                 ; preds = %7
  %10 = getelementptr inbounds i8, ptr %6, i64 24
  %11 = load i64, ptr %10, align 8
  %12 = getelementptr inbounds i8, ptr %6, i64 8
  %13 = load i64, ptr %12, align 8
  %14 = icmp ne i64 %11, %13
  %15 = icmp ne ptr %2, null
  %or.cond = or i1 %15, %14
  br i1 %or.cond, label %20, label %.thread24

.thread24:                                        ; preds = %print_chain.exit
  %16 = add i64 %9, -1
  %17 = load ptr, ptr %6, align 8
  store i64 %16, ptr %8, align 8
  %18 = getelementptr inbounds ptr, ptr %17, i64 %16
  %19 = load ptr, ptr %18, align 8
  tail call void @free(ptr noundef %19) #21
  br label %25

20:                                               ; preds = %print_chain.exit
  br i1 %15, label %21, label %25

21:                                               ; preds = %20
  %22 = getelementptr inbounds i8, ptr %6, i64 16
  %23 = load i64, ptr %22, align 8
  %.not21 = icmp eq i64 %23, 0
  br i1 %.not21, label %24, label %25

24:                                               ; preds = %21
  store i64 %11, ptr %22, align 8
  br label %25

25:                                               ; preds = %7, %24, %21, %20, %.thread24
  %26 = getelementptr inbounds i8, ptr %6, i64 24
  %27 = load i64, ptr %26, align 8
  %28 = add i64 %27, -1
  store i64 %28, ptr %26, align 8
  br label %.critedge

.critedge:                                        ; preds = %4, %5, %25
  ret i32 0
}